target datalayout = "e-m:e-p270:32:32-p271:32:32-p272:64:64-i64:64-i128:128-f80:128-n8:16:32:64-S128"
target triple = "x86_64-pc-linux-gnu"

%struct.ossl_cc_newreno_st = type { ptr, ptr, i64, i64, i32, i32, i32, i64, i64, i64, i64, i64, %struct.OSSL_TIME, i32, %struct.OSSL_TIME, i32, ptr, ptr, ptr, ptr, ptr }
%struct.OSSL_TIME = type { i64 }

; Function Attrs: inlinehint nounwind uwtable
define internal i64 @ossl_ticks2time(i64 noundef %0) #3 {
  %2 = alloca %struct.OSSL_TIME, align 8
  %3 = alloca i64, align 8
  store i64 %0, ptr %3, align 8, !tbaa !28
  %4 = load i64, ptr %3, align 8, !tbaa !28
  %5 = getelementptr inbounds nuw %struct.OSSL_TIME, ptr %2, i32 0, i32 0
  store i64 %4, ptr %5, align 8, !tbaa !53
  %6 = getelementptr inbounds nuw %struct.OSSL_TIME, ptr %2, i32 0, i32 0
  %7 = load i64, ptr %6, align 8
  ret i64 %7
}

; Function Attrs: inlinehint nounwind uwtable
define internal i64 @ossl_time_infinite() #3 {
  %1 = alloca %struct.OSSL_TIME, align 8
  %2 = call i64 @ossl_ticks2time(i64 noundef -1)
  %3 = getelementptr inbounds nuw %struct.OSSL_TIME, ptr %1, i32 0, i32 0
  store i64 %2, ptr %3, align 8
  %4 = getelementptr inbounds nuw %struct.OSSL_TIME, ptr %1, i32 0, i32 0
  %5 = load i64, ptr %4, align 8
  ret i64 %5
}

; Function Attrs: inlinehint nounwind uwtable
define internal i64 @ossl_time_zero() #3 {
  %1 = alloca %struct.OSSL_TIME, align 8
  %2 = call i64 @ossl_ticks2time(i64 noundef 0)
  %3 = getelementptr inbounds nuw %struct.OSSL_TIME, ptr %1, i32 0, i32 0
  store i64 %2, ptr %3, align 8
  %4 = getelementptr inbounds nuw %struct.OSSL_TIME, ptr %1, i32 0, i32 0
  %5 = load i64, ptr %4, align 8
  ret i64 %5
}

; Function Attrs: nounwind uwtable
define internal i64 @newreno_get_tx_allowance(ptr noundef %0) #0 {
  %2 = alloca i64, align 8
  %3 = alloca ptr, align 8
  %4 = alloca ptr, align 8
  %5 = alloca i32, align 4
  store ptr %0, ptr %3, align 8, !tbaa !17
  call void @llvm.lifetime.start.p0(i64 8, ptr %4) #6
  %6 = load ptr, ptr %3, align 8, !tbaa !17
  store ptr %6, ptr %4, align 8, !tbaa !7
  %7 = load ptr, ptr %4, align 8, !tbaa !7
  %8 = getelementptr inbounds nuw %struct.ossl_cc_newreno_st, ptr %7, i32 0, i32 8
  %9 = load i64, ptr %8, align 8, !tbaa !24
  %10 = load ptr, ptr %4, align 8, !tbaa !7
  %11 = getelementptr inbounds nuw %struct.ossl_cc_newreno_st, ptr %10, i32 0, i32 9
  %12 = load i64, ptr %11, align 8, !tbaa !23
  %13 = icmp uge i64 %9, %12
  br i1 %13, label %14, label %15

14:                                               ; preds = %1
  store i64 0, ptr %2, align 8
  store i32 1, ptr %5, align 4
  br label %23

15:                                               ; preds = %1
  %16 = load ptr, ptr %4, align 8, !tbaa !7
  %17 = getelementptr inbounds nuw %struct.ossl_cc_newreno_st, ptr %16, i32 0, i32 9
  %18 = load i64, ptr %17, align 8, !tbaa !23
  %19 = load ptr, ptr %4, align 8, !tbaa !7
  %20 = getelementptr inbounds nuw %struct.ossl_cc_newreno_st, ptr %19, i32 0, i32 8
  %21 = load i64, ptr %20, align 8, !tbaa !24
  %22 = sub i64 %18, %21
  store i64 %22, ptr %2, align 8
  store i32 1, ptr %5, align 4
  br label %23

23:                                               ; preds = %15, %14
  call void @llvm.lifetime.end.p0(i64 8, ptr %4) #6
  %24 = load i64, ptr %2, align 8
  ret i64 %24
}

; Function Attrs: nounwind uwtable
define internal i64 @newreno_get_wakeup_deadline(ptr noundef %0) #0 {
  %2 = alloca %struct.OSSL_TIME, align 8
  %3 = alloca ptr, align 8
  store ptr %0, ptr %3, align 8, !tbaa !17
  %4 = load ptr, ptr %3, align 8, !tbaa !17
  %5 = call i64 @newreno_get_tx_allowance(ptr noundef %4)
  %6 = icmp ugt i64 %5, 0
  br i1 %6, label %7, label %10

7:                                                ; preds = %1
  %8 = call i64 @ossl_time_zero()
  %9 = getelementptr inbounds nuw %struct.OSSL_TIME, ptr %2, i32 0, i32 0
  store i64 %8, ptr %9, align 8
  br label %13

10:                                               ; preds = %1
  %11 = call i64 @ossl_time_infinite()
  %12 = getelementptr inbounds nuw %struct.OSSL_TIME, ptr %2, i32 0, i32 0
  store i64 %11, ptr %12, align 8
  br label %13

13:                                               ; preds = %10, %7
  %14 = getelementptr inbounds nuw %struct.OSSL_TIME, ptr %2, i32 0, i32 0
  %15 = load i64, ptr %14, align 8
  ret i64 %15
}