; Function Attrs: mustprogress nofree norecurse nosync nounwind willreturn memory(argmem: read) uwtable
define internal range(i64 -1, 1) i64 @newreno_get_wakeup_deadline(ptr noundef readonly captures(none) %0) #2 {
  %2 = getelementptr inbounds nuw i8, ptr %0, i64 56
  %3 = load i64, ptr %2, align 8, !tbaa !23
  %4 = getelementptr inbounds nuw i8, ptr %0, i64 64
  %5 = load i64, ptr %4, align 8, !tbaa !17
  %.not.not = icmp ule i64 %5, %3
  %spec.select = sext i1 %.not.not to i64
  ret i64 %spec.select
}